target datalayout = "e-m:e-p270:32:32-p271:32:32-p272:64:64-i64:64-i128:128-f80:128-n8:16:32:64-S128"
target triple = "x86_64-pc-linux-gnu"

%struct.archive_write = type { %struct.archive, i32, i64, i64, ptr, i64, ptr, ptr, ptr, ptr, ptr, i32, i32, ptr, ptr, ptr, ptr, ptr, ptr, ptr, ptr, ptr, ptr, ptr, ptr, ptr, ptr }
%struct.archive = type { i32, i32, ptr, i32, ptr, i32, i32, ptr, %struct.archive_string, ptr, i32, i32, ptr, ptr, i64, i64, i64, i8, i64 }
%struct.archive_string = type { ptr, i64, i64 }

@.str = private unnamed_addr constant [34 x i8] c"archive_write_set_format_cpio_odc\00", align 1
@.str.1 = private unnamed_addr constant [25 x i8] c"Can't allocate cpio data\00", align 1
@.str.2 = private unnamed_addr constant [5 x i8] c"cpio\00", align 1
@.str.3 = private unnamed_addr constant [11 x i8] c"POSIX cpio\00", align 1

; Function Attrs: nounwind uwtable
define dso_local i32 @archive_write_set_format_cpio_odc(ptr noundef %0) #0 {
  %2 = alloca i32, align 4
  %3 = alloca ptr, align 8
  %4 = alloca ptr, align 8
  %5 = alloca ptr, align 8
  %6 = alloca i32, align 4
  %7 = alloca i32, align 4
  store ptr %0, ptr %3, align 8, !tbaa !4
  call void @llvm.lifetime.start.p0(i64 8, ptr %4) #9
  %8 = load ptr, ptr %3, align 8, !tbaa !4
  store ptr %8, ptr %4, align 8, !tbaa !9
  call void @llvm.lifetime.start.p0(i64 8, ptr %5) #9
  br label %9

9:                                                ; preds = %1
  call void @llvm.lifetime.start.p0(i64 4, ptr %6) #9
  %10 = load ptr, ptr %3, align 8, !tbaa !4
  %11 = call i32 @__archive_check_magic(ptr noundef %10, i32 noundef -1329217314, i32 noundef 1, ptr noundef @.str)
  store i32 %11, ptr %6, align 4, !tbaa !11
  %12 = load i32, ptr %6, align 4, !tbaa !11
  %13 = icmp eq i32 %12, -30
  br i1 %13, label %14, label %15

14:                                               ; preds = %9
  store i32 -30, ptr %2, align 4
  store i32 1, ptr %7, align 4
  br label %16

15:                                               ; preds = %9
  store i32 0, ptr %7, align 4
  br label %16

16:                                               ; preds = %15, %14
  call void @llvm.lifetime.end.p0(i64 4, ptr %6) #9
  %17 = load i32, ptr %7, align 4
  switch i32 %17, label %62 [
    i32 0, label %18
  ]

18:                                               ; preds = %16
  br label %19

19:                                               ; preds = %18
  br label %20

20:                                               ; preds = %19
  %21 = load ptr, ptr %4, align 8, !tbaa !9
  %22 = getelementptr inbounds nuw %struct.archive_write, ptr %21, i32 0, i32 23
  %23 = load ptr, ptr %22, align 8, !tbaa !13
  %24 = icmp ne ptr %23, null
  br i1 %24, label %25, label %31

25:                                               ; preds = %20
  %26 = load ptr, ptr %4, align 8, !tbaa !9
  %27 = getelementptr inbounds nuw %struct.archive_write, ptr %26, i32 0, i32 23
  %28 = load ptr, ptr %27, align 8, !tbaa !13
  %29 = load ptr, ptr %4, align 8, !tbaa !9
  %30 = call i32 %28(ptr noundef %29)
  br label %31

31:                                               ; preds = %25, %20
  %32 = call noalias ptr @calloc(i64 noundef 1, i64 noundef 64) #10
  store ptr %32, ptr %5, align 8, !tbaa !22
  %33 = load ptr, ptr %5, align 8, !tbaa !22
  %34 = icmp eq ptr %33, null
  br i1 %34, label %35, label %38

35:                                               ; preds = %31
  %36 = load ptr, ptr %4, align 8, !tbaa !9
  %37 = getelementptr inbounds nuw %struct.archive_write, ptr %36, i32 0, i32 0
  call void (ptr, i32, ptr, ...) @archive_set_error(ptr noundef %37, i32 noundef 12, ptr noundef @.str.1)
  store i32 -30, ptr %2, align 4
  store i32 1, ptr %7, align 4
  br label %62

38:                                               ; preds = %31
  %39 = load ptr, ptr %5, align 8, !tbaa !22
  %40 = load ptr, ptr %4, align 8, !tbaa !9
  %41 = getelementptr inbounds nuw %struct.archive_write, ptr %40, i32 0, i32 15
  store ptr %39, ptr %41, align 8, !tbaa !24
  %42 = load ptr, ptr %4, align 8, !tbaa !9
  %43 = getelementptr inbounds nuw %struct.archive_write, ptr %42, i32 0, i32 16
  store ptr @.str.2, ptr %43, align 8, !tbaa !25
  %44 = load ptr, ptr %4, align 8, !tbaa !9
  %45 = getelementptr inbounds nuw %struct.archive_write, ptr %44, i32 0, i32 18
  store ptr @archive_write_odc_options, ptr %45, align 8, !tbaa !26
  %46 = load ptr, ptr %4, align 8, !tbaa !9
  %47 = getelementptr inbounds nuw %struct.archive_write, ptr %46, i32 0, i32 20
  store ptr @archive_write_odc_header, ptr %47, align 8, !tbaa !27
  %48 = load ptr, ptr %4, align 8, !tbaa !9
  %49 = getelementptr inbounds nuw %struct.archive_write, ptr %48, i32 0, i32 21
  store ptr @archive_write_odc_data, ptr %49, align 8, !tbaa !28
  %50 = load ptr, ptr %4, align 8, !tbaa !9
  %51 = getelementptr inbounds nuw %struct.archive_write, ptr %50, i32 0, i32 19
  store ptr @archive_write_odc_finish_entry, ptr %51, align 8, !tbaa !29
  %52 = load ptr, ptr %4, align 8, !tbaa !9
  %53 = getelementptr inbounds nuw %struct.archive_write, ptr %52, i32 0, i32 22
  store ptr @archive_write_odc_close, ptr %53, align 8, !tbaa !30
  %54 = load ptr, ptr %4, align 8, !tbaa !9
  %55 = getelementptr inbounds nuw %struct.archive_write, ptr %54, i32 0, i32 23
  store ptr @archive_write_odc_free, ptr %55, align 8, !tbaa !13
  %56 = load ptr, ptr %4, align 8, !tbaa !9
  %57 = getelementptr inbounds nuw %struct.archive_write, ptr %56, i32 0, i32 0
  %58 = getelementptr inbounds nuw %struct.archive, ptr %57, i32 0, i32 3
  store i32 65537, ptr %58, align 8, !tbaa !31
  %59 = load ptr, ptr %4, align 8, !tbaa !9
  %60 = getelementptr inbounds nuw %struct.archive_write, ptr %59, i32 0, i32 0
  %61 = getelementptr inbounds nuw %struct.archive, ptr %60, i32 0, i32 4
  store ptr @.str.3, ptr %61, align 8, !tbaa !32
  store i32 0, ptr %2, align 4
  store i32 1, ptr %7, align 4
  br label %62

62:                                               ; preds = %38, %35, %16
  call void @llvm.lifetime.end.p0(i64 8, ptr %5) #9
  call void @llvm.lifetime.end.p0(i64 8, ptr %4) #9
  %63 = load i32, ptr %2, align 4
  ret i32 %63
}